ARM GAS  C:\Users\Miikka\AppData\Local\Temp\ccVGNFhN.s 			page 1


   1              		.syntax unified
   2              		.cpu cortex-m3
   3              		.fpu softvfp
   4              		.eabi_attribute 20, 1
   5              		.eabi_attribute 21, 1
   6              		.eabi_attribute 23, 3
   7              		.eabi_attribute 24, 1
   8              		.eabi_attribute 25, 1
   9              		.eabi_attribute 26, 1
  10              		.eabi_attribute 30, 1
  11              		.eabi_attribute 34, 1
  12              		.eabi_attribute 18, 4
  13              		.thumb
  14              		.file	"main.c"
  15              		.text
  16              	.Ltext0:
  17              		.cfi_sections	.debug_frame
  18              		.global	__aeabi_fmul
  19              		.global	__aeabi_fcmplt
  20              		.global	__aeabi_f2d
  21              		.section	.text.main,"ax",%progbits
  22              		.align	2
  23              		.global	main
  24              		.thumb
  25              		.thumb_func
  26              		.type	main, %function
  27              	main:
  28              	.LFB63:
  29              		.file 1 "main.c"
   1:main.c        **** /**
   2:main.c        **** * @mainpage ZumoBot Project
   3:main.c        **** * @brief    You can make your own ZumoBot with various sensors.
   4:main.c        **** * @details  <br><br>
   5:main.c        ****     <p>
   6:main.c        ****     <B>General</B><br>
   7:main.c        ****     You will use Pololu Zumo Shields for your robot project with CY8CKIT-059(PSoC 5LP) from Cypress
   8:main.c        ****     library has basic methods of various sensors and communications so that you can make what you w
   9:main.c        ****     <br><br>
  10:main.c        ****     </p>
  11:main.c        ****     
  12:main.c        ****     <p>
  13:main.c        ****     <B>Sensors</B><br>
  14:main.c        ****     &nbsp;Included: <br>
  15:main.c        ****         &nbsp;&nbsp;&nbsp;&nbsp;LSM303D: Accelerometer & Magnetometer<br>
  16:main.c        ****         &nbsp;&nbsp;&nbsp;&nbsp;L3GD20H: Gyroscope<br>
  17:main.c        ****         &nbsp;&nbsp;&nbsp;&nbsp;Reflectance sensor<br>
  18:main.c        ****         &nbsp;&nbsp;&nbsp;&nbsp;Motors
  19:main.c        ****     &nbsp;Wii nunchuck<br>
  20:main.c        ****     &nbsp;TSOP-2236: IR Receiver<br>
  21:main.c        ****     &nbsp;HC-SR04: Ultrasonic sensor<br>
  22:main.c        ****     &nbsp;APDS-9301: Ambient light sensor<br>
  23:main.c        ****     &nbsp;IR LED <br><br><br>
  24:main.c        ****     </p>
  25:main.c        ****     
  26:main.c        ****     <p>
  27:main.c        ****     <B>Communication</B><br>
  28:main.c        ****     I2C, UART, Serial<br>
ARM GAS  C:\Users\Miikka\AppData\Local\Temp\ccVGNFhN.s 			page 2


  29:main.c        ****     </p>
  30:main.c        **** */
  31:main.c        **** 
  32:main.c        **** #include <project.h>
  33:main.c        **** #include <stdio.h>
  34:main.c        **** #include "Motor.h"
  35:main.c        **** #include "Ultra.h"
  36:main.c        **** #include "Nunchuk.h"
  37:main.c        **** #include "Reflectance.h"
  38:main.c        **** #include "I2C_made.h"
  39:main.c        **** #include "Gyro.h"
  40:main.c        **** #include "Accel_magnet.h"
  41:main.c        **** #include "IR.h"
  42:main.c        **** #include "Ambient.h"
  43:main.c        **** #include "Beep.h"
  44:main.c        **** 
  45:main.c        **** 
  46:main.c        **** int rread(void);
  47:main.c        **** 
  48:main.c        **** /**
  49:main.c        ****  * @file    main.c
  50:main.c        ****  * @brief   
  51:main.c        ****  * @details  ** You should enable global interrupt for operating properly. **<br>&nbsp;&nbsp;&nbsp;
  52:main.c        **** */
  53:main.c        **** 
  54:main.c        **** 
  55:main.c        **** //battery level//
  56:main.c        **** int main()
  57:main.c        **** {
  30              		.loc 1 57 0
  31              		.cfi_startproc
  32              		@ args = 0, pretend = 0, frame = 48
  33              		@ frame_needed = 0, uses_anonymous_args = 0
  34 0000 2DE9F04F 		push	{r4, r5, r6, r7, r8, r9, r10, fp, lr}
  35              		.cfi_def_cfa_offset 36
  36              		.cfi_offset 4, -36
  37              		.cfi_offset 5, -32
  38              		.cfi_offset 6, -28
  39              		.cfi_offset 7, -24
  40              		.cfi_offset 8, -20
  41              		.cfi_offset 9, -16
  42              		.cfi_offset 10, -12
  43              		.cfi_offset 11, -8
  44              		.cfi_offset 14, -4
  45 0004 8FB0     		sub	sp, sp, #60
  46              		.cfi_def_cfa_offset 96
  58:main.c        ****     CyGlobalIntEnable; 
  47              		.loc 1 58 0
  48              	@ 58 "main.c" 1
  49 0006 62B6     		CPSIE   i
  50              	@ 0 "" 2
  59:main.c        ****     UART_1_Start();
  51              		.loc 1 59 0
  52              		.thumb
  53 0008 FFF7FEFF 		bl	UART_1_Start
  54              	.LVL0:
  60:main.c        ****     ADC_Battery_Start();
ARM GAS  C:\Users\Miikka\AppData\Local\Temp\ccVGNFhN.s 			page 3


  55              		.loc 1 60 0
  56 000c FFF7FEFF 		bl	ADC_Battery_Start
  57              	.LVL1:
  61:main.c        ****     int16 adcresult =0;
  62:main.c        ****     float volts = 0.0;
  63:main.c        ****     struct sensors_ ref;
  64:main.c        ****     struct sensors_ dig;
  65:main.c        ****     int startStopWatch = 0;
  66:main.c        ****     int stopWatch = 0;
  67:main.c        ****     int delay = 1;
  68:main.c        **** 
  69:main.c        ****     printf("\nBoot\n");
  58              		.loc 1 69 0
  59 0010 A948     		ldr	r0, .L36
  60 0012 FFF7FEFF 		bl	puts
  61              	.LVL2:
  70:main.c        **** 
  71:main.c        ****     //BatteryLed_Write(1); // Switch led on 
  72:main.c        ****     BatteryLed_Write(0); // Switch led off 
  62              		.loc 1 72 0
  63 0016 0020     		movs	r0, #0
  64 0018 FFF7FEFF 		bl	BatteryLed_Write
  65              	.LVL3:
  73:main.c        ****     uint8 button;
  74:main.c        ****     button = SW1_Read(); // read SW1 on pSoC board
  66              		.loc 1 74 0
  67 001c FFF7FEFF 		bl	SW1_Read
  68              	.LVL4:
  75:main.c        ****     
  76:main.c        **** //siirrä****
  77:main.c        ****     
  78:main.c        ****     while(button == 1) {
  69              		.loc 1 78 0
  70 0020 01E0     		b	.L2
  71              	.L3:
  79:main.c        ****         button = SW1_Read();
  72              		.loc 1 79 0
  73 0022 FFF7FEFF 		bl	SW1_Read
  74              	.LVL5:
  75              	.L2:
  78:main.c        ****         button = SW1_Read();
  76              		.loc 1 78 0
  77 0026 0128     		cmp	r0, #1
  78 0028 FBD0     		beq	.L3
  80:main.c        ****     }
  81:main.c        ****     sensor_isr_StartEx(sensor_isr_handler);
  79              		.loc 1 81 0
  80 002a A448     		ldr	r0, .L36+4
  81              	.LVL6:
  82 002c FFF7FEFF 		bl	sensor_isr_StartEx
  83              	.LVL7:
  82:main.c        ****     
  83:main.c        ****     reflectance_start();
  84              		.loc 1 83 0
  85 0030 FFF7FEFF 		bl	reflectance_start
  86              	.LVL8:
  84:main.c        **** 
ARM GAS  C:\Users\Miikka\AppData\Local\Temp\ccVGNFhN.s 			page 4


  85:main.c        ****     IR_led_Write(1);
  87              		.loc 1 85 0
  88 0034 0120     		movs	r0, #1
  89 0036 FFF7FEFF 		bl	IR_led_Write
  90              	.LVL9:
  86:main.c        ****     CyDelay(50);
  91              		.loc 1 86 0
  92 003a 3220     		movs	r0, #50
  93 003c FFF7FEFF 		bl	CyDelay
  94              	.LVL10:
  87:main.c        ****     
  88:main.c        ****     //Kalibroidaan valkoisen arvot
  89:main.c        ****     reflectance_read(&ref);
  95              		.loc 1 89 0
  96 0040 0CA8     		add	r0, sp, #48
  97 0042 FFF7FEFF 		bl	reflectance_read
  98              	.LVL11:
  90:main.c        ****     int ulkvasValkoinen = ref.l3;
  99              		.loc 1 90 0
 100 0046 BDF83040 		ldrh	r4, [sp, #48]
 101              	.LVL12:
  91:main.c        ****     int sisvasValkoinen = ref.l1;
 102              		.loc 1 91 0
 103 004a BDF832B0 		ldrh	fp, [sp, #50]
 104              	.LVL13:
  92:main.c        ****     int sisoikValkoinen = ref.r1;
 105              		.loc 1 92 0
 106 004e BDF83430 		ldrh	r3, [sp, #52]
 107 0052 1E46     		mov	r6, r3
 108 0054 0593     		str	r3, [sp, #20]
 109              	.LVL14:
  93:main.c        ****     int ulkoikValkoinen = ref.r3;
 110              		.loc 1 93 0
 111 0056 BDF83650 		ldrh	r5, [sp, #54]
 112              	.LVL15:
  94:main.c        ****     
  95:main.c        ****     printf("Valkoisen arvot\n");
 113              		.loc 1 95 0
 114 005a 9948     		ldr	r0, .L36+8
 115 005c FFF7FEFF 		bl	puts
 116              	.LVL16:
  96:main.c        ****     printf("%d %d %d %d\n", ulkvasValkoinen, sisvasValkoinen, sisoikValkoinen, ulkoikValkoinen);
 117              		.loc 1 96 0
 118 0060 0095     		str	r5, [sp]
 119 0062 9848     		ldr	r0, .L36+12
 120 0064 2146     		mov	r1, r4
 121 0066 5A46     		mov	r2, fp
 122 0068 3346     		mov	r3, r6
 123 006a FFF7FEFF 		bl	printf
 124              	.LVL17:
  97:main.c        ****     //-----------------------------//
  98:main.c        ****     button = 1;
  99:main.c        ****     CyDelay(2000);
 125              		.loc 1 99 0
 126 006e 4FF4FA60 		mov	r0, #2000
 127 0072 FFF7FEFF 		bl	CyDelay
 128              	.LVL18:
ARM GAS  C:\Users\Miikka\AppData\Local\Temp\ccVGNFhN.s 			page 5


  98:main.c        ****     CyDelay(2000);
 129              		.loc 1 98 0
 130 0076 0120     		movs	r0, #1
 100:main.c        ****     
 101:main.c        ****     while(button == 1) {
 131              		.loc 1 101 0
 132 0078 01E0     		b	.L4
 133              	.LVL19:
 134              	.L5:
 102:main.c        ****         button = SW1_Read();
 135              		.loc 1 102 0
 136 007a FFF7FEFF 		bl	SW1_Read
 137              	.LVL20:
 138              	.L4:
 101:main.c        ****         button = SW1_Read();
 139              		.loc 1 101 0
 140 007e 0128     		cmp	r0, #1
 141 0080 FBD0     		beq	.L5
 103:main.c        ****     }
 104:main.c        ****     
 105:main.c        ****     reflectance_read(&ref);
 142              		.loc 1 105 0
 143 0082 0CA8     		add	r0, sp, #48
 144              	.LVL21:
 145 0084 FFF7FEFF 		bl	reflectance_read
 146              	.LVL22:
 106:main.c        ****     int sisvasenMustaMax = ref.l1;
 147              		.loc 1 106 0
 148 0088 BDF83230 		ldrh	r3, [sp, #50]
 149 008c 1C46     		mov	r4, r3
 150              	.LVL23:
 151 008e 0A93     		str	r3, [sp, #40]
 152              	.LVL24:
 107:main.c        ****     int sisoikeaMustaMax = ref.r1;
 153              		.loc 1 107 0
 154 0090 BDF83430 		ldrh	r3, [sp, #52]
 155              	.LVL25:
 156 0094 1D46     		mov	r5, r3
 157              	.LVL26:
 158 0096 0B93     		str	r3, [sp, #44]
 159              	.LVL27:
 108:main.c        ****     int ulkoikeaMustaMax = ref.r3;
 160              		.loc 1 108 0
 161 0098 BDF83630 		ldrh	r3, [sp, #54]
 162              	.LVL28:
 163 009c 1E46     		mov	r6, r3
 164              	.LVL29:
 165 009e 0993     		str	r3, [sp, #36]
 166              	.LVL30:
 109:main.c        ****     int ulkvasenMustaMax = ref.l3;
 167              		.loc 1 109 0
 168 00a0 BDF83090 		ldrh	r9, [sp, #48]
 169              	.LVL31:
 110:main.c        ****     
 111:main.c        ****     printf("Mustan arvot");
 170              		.loc 1 111 0
 171 00a4 8848     		ldr	r0, .L36+16
ARM GAS  C:\Users\Miikka\AppData\Local\Temp\ccVGNFhN.s 			page 6


 172 00a6 FFF7FEFF 		bl	printf
 173              	.LVL32:
 112:main.c        ****     printf("%d %d %d %d\n", ulkvasenMustaMax, sisvasenMustaMax, sisoikeaMustaMax, ulkoikeaMustaMax)
 174              		.loc 1 112 0
 175 00aa 0096     		str	r6, [sp]
 176 00ac 8548     		ldr	r0, .L36+12
 177 00ae 4946     		mov	r1, r9
 178 00b0 2246     		mov	r2, r4
 179 00b2 2B46     		mov	r3, r5
 180 00b4 FFF7FEFF 		bl	printf
 181              	.LVL33:
 113:main.c        ****     
 114:main.c        ****     button = 1;
 115:main.c        ****     CyDelay(2000);
 182              		.loc 1 115 0
 183 00b8 4FF4FA60 		mov	r0, #2000
 184 00bc FFF7FEFF 		bl	CyDelay
 185              	.LVL34:
 114:main.c        ****     CyDelay(2000);
 186              		.loc 1 114 0
 187 00c0 0120     		movs	r0, #1
 116:main.c        ****     
 117:main.c        ****     while(button == 1) {
 188              		.loc 1 117 0
 189 00c2 01E0     		b	.L6
 190              	.LVL35:
 191              	.L7:
 118:main.c        ****         button = SW1_Read();
 192              		.loc 1 118 0
 193 00c4 FFF7FEFF 		bl	SW1_Read
 194              	.LVL36:
 195              	.L6:
 117:main.c        ****         button = SW1_Read();
 196              		.loc 1 117 0
 197 00c8 0128     		cmp	r0, #1
 198 00ca FBD0     		beq	.L7
 119:main.c        ****     }
 120:main.c        ****     motor_start();
 199              		.loc 1 120 0
 200 00cc FFF7FEFF 		bl	motor_start
 201              	.LVL37:
 121:main.c        ****     //get_IR();
 122:main.c        ****     
 123:main.c        ****     int maxNopeus = 255;
 124:main.c        ****     int minNopeus = 0;
 125:main.c        ****     int vasenNopeus = 1;
 126:main.c        ****     int oikeaNopeus = 1;
 127:main.c        ****     int kaantyi = 3; //0, jos vasen. 1, jos oikea
 128:main.c        ****     //int mustaMax = 23999; // VAKIO
 129:main.c        ****     
 130:main.c        ****     //Perusajon logiikan muuttujia//
 131:main.c        ****     int vasTermienMaara = sisvasenMustaMax - sisvasValkoinen;
 202              		.loc 1 131 0
 203 00d0 0A9B     		ldr	r3, [sp, #40]
 204 00d2 CBEB0302 		rsb	r2, fp, r3
 132:main.c        ****     int oikTermienMaara = sisoikeaMustaMax - sisoikValkoinen;
 205              		.loc 1 132 0
ARM GAS  C:\Users\Miikka\AppData\Local\Temp\ccVGNFhN.s 			page 7


 206 00d6 0B9B     		ldr	r3, [sp, #44]
 207 00d8 0599     		ldr	r1, [sp, #20]
 208 00da 5B1A     		subs	r3, r3, r1
 133:main.c        ****     int vasVakioMuuttuja = 10000 * (maxNopeus - minNopeus) / (vasTermienMaara - 1);
 209              		.loc 1 133 0
 210 00dc 013A     		subs	r2, r2, #1
 211 00de 7B49     		ldr	r1, .L36+20
 212 00e0 91FBF2F2 		sdiv	r2, r1, r2
 213 00e4 0792     		str	r2, [sp, #28]
 214              	.LVL38:
 134:main.c        ****     int oikVakioMuuttuja = 10000 * (maxNopeus - minNopeus) / (oikTermienMaara - 1);
 215              		.loc 1 134 0
 216 00e6 013B     		subs	r3, r3, #1
 217 00e8 91FBF3F3 		sdiv	r3, r1, r3
 218 00ec 0893     		str	r3, [sp, #32]
 219              	.LVL39:
 127:main.c        ****     //int mustaMax = 23999; // VAKIO
 220              		.loc 1 127 0
 221 00ee 0323     		movs	r3, #3
 222              	.LVL40:
 223 00f0 0393     		str	r3, [sp, #12]
  66:main.c        ****     int delay = 1;
 224              		.loc 1 66 0
 225 00f2 0023     		movs	r3, #0
 226 00f4 0493     		str	r3, [sp, #16]
  65:main.c        ****     int stopWatch = 0;
 227              		.loc 1 65 0
 228 00f6 0693     		str	r3, [sp, #24]
 229 00f8 03E0     		b	.L8
 230              	.LVL41:
 231              	.L33:
 232              	.LBB2:
 135:main.c        ****     
 136:main.c        ****     for(;;)
 137:main.c        ****     {
 138:main.c        ****         
 139:main.c        ****         reflectance_read(&ref);
 140:main.c        ****         //printf("%d %d %d %d \r\n", ref.l3, ref.l1, ref.r1, ref.r3);       //print out each period
 141:main.c        ****         //reflectance_digital(&dig);      //print out 0 or 1 according to results of reflectance pe
 142:main.c        ****         //printf("%d %d %d %d \r\n", dig.l3, dig.l1, dig.r1, dig.r3);        //print out 0 or 1 acc
 143:main.c        ****         
 144:main.c        ****         /*
 145:main.c        ****         int ulkvas = dig.l3;
 146:main.c        ****         int sisvas = dig.l1;
 147:main.c        ****         int sisoik = dig.r1;
 148:main.c        ****         int ulkoik = dig.r3;
 149:main.c        ****         */
 150:main.c        ****         // Analogiset arvot //
 151:main.c        ****         int tonniulkvas = ref.l3;
 152:main.c        ****         int tonnisisvas = ref.l1;
 153:main.c        ****         int tonnisisoik = ref.r1;
 154:main.c        ****         int tonniulkoik = ref.r3;
 155:main.c        ****         
 156:main.c        ****   
 157:main.c        ****         /*// Mitattu tunnilla, voi muuttua //
 158:main.c        ****         int ulkvasValkoinen = 6000; // +/- 200
 159:main.c        ****         int sisvasValkoinen = 4200; // -||-
ARM GAS  C:\Users\Miikka\AppData\Local\Temp\ccVGNFhN.s 			page 8


 160:main.c        ****         int sisoikValkoinen = 5200; // -||-
 161:main.c        ****         int ulkoikValkoinen = 7000; // -||-*/
 162:main.c        ****         
 163:main.c        ****         //Normaaliajo//
 164:main.c        ****     
 165:main.c        ****         int vasTermiNro = tonnisisvas + 1 - sisvasValkoinen;
 166:main.c        ****         int oikTermiNro = tonnisisoik + 1 - sisoikValkoinen;
 167:main.c        ****         
 168:main.c        ****         oikeaNopeus = minNopeus + ((vasTermiNro - 1) * vasVakioMuuttuja / 10000);
 169:main.c        ****         vasenNopeus = minNopeus + ((oikTermiNro - 1) * oikVakioMuuttuja / 10000);
 170:main.c        ****             
 171:main.c        ****         //Estetään ylivuoto//
 172:main.c        ****         if (vasenNopeus > maxNopeus) {
 173:main.c        ****             vasenNopeus = maxNopeus;    
 174:main.c        ****         }
 175:main.c        ****         if (oikeaNopeus > maxNopeus) {
 176:main.c        ****             oikeaNopeus = maxNopeus;    
 177:main.c        ****         }
 178:main.c        ****         
 179:main.c        ****         //Estetään negatiivinen nopeus//
 180:main.c        ****         if (vasenNopeus < minNopeus) {
 181:main.c        ****             vasenNopeus = minNopeus;    
 182:main.c        ****         }
 183:main.c        ****         if (oikeaNopeus < minNopeus) {
 184:main.c        ****             oikeaNopeus = minNopeus;    
 185:main.c        ****         }
 186:main.c        ****             
 187:main.c        ****         //Tallennetaan viimeisin käännös//
 188:main.c        ****         if (vasenNopeus < oikeaNopeus) {
 189:main.c        ****             kaantyi = 0;    
 190:main.c        ****         } else if (oikeaNopeus < vasenNopeus) {
 191:main.c        ****             kaantyi = 1;    
 192:main.c        ****         }
 193:main.c        ****             
 194:main.c        ****         
 195:main.c        ****                             //Ajotyylin valinta//
 196:main.c        ****         
 197:main.c        ****         //Tiukat käännökset//
 198:main.c        ****         if (tonniulkvas > ulkvasenMustaMax - 15000) {
 199:main.c        ****             motor_turn(minNopeus, maxNopeus, delay);
 200:main.c        ****             kaantyi = 0;
 201:main.c        ****         } else if (tonniulkoik > ulkoikeaMustaMax - 15000) {
 202:main.c        ****             motor_turn(maxNopeus, minNopeus, delay);
 203:main.c        ****             kaantyi = 1;
 204:main.c        ****             
 205:main.c        ****         //Jos kaikki sensorit näkevät "lähes" valkoista. Käytetään, kun rata jää sensoreide
 206:main.c        ****         } else if (tonnisisvas <= sisvasValkoinen + 2000 || tonnisisoik <= sisoikValkoinen + 2000) 
 207:main.c        ****             BatteryLed_Write(1);
 208:main.c        ****             if (kaantyi == 0) {
 209:main.c        ****                 motor_turn(minNopeus, maxNopeus, delay); 
 210:main.c        ****             } else if (kaantyi == 1) {
 211:main.c        ****                 motor_turn(maxNopeus, minNopeus, delay);
 212:main.c        ****             }
 213:main.c        ****         //Dynaaminen ajo//
 214:main.c        ****         } else {
 215:main.c        ****             BatteryLed_Write(0);
 216:main.c        ****             motor_turn(vasenNopeus, oikeaNopeus, delay);
ARM GAS  C:\Users\Miikka\AppData\Local\Temp\ccVGNFhN.s 			page 9


 217:main.c        ****         }
 218:main.c        ****         
 219:main.c        ****         
 220:main.c        ****         //Laskuri pysähtymiseen
 221:main.c        ****         if (startStopWatch == 1) {
 222:main.c        ****             stopWatch++;    
 223:main.c        ****         }
 224:main.c        ****         
 225:main.c        ****         if (stopWatch > 10 && stopWatch < 200 && tonniulkvas > ulkvasenMustaMax - 4000 && tonnisisv
 226:main.c        ****             motor_stop();
 227:main.c        ****             break;
 228:main.c        ****         }
 229:main.c        ****         
 230:main.c        ****         // sensorit kaikki mustalla => pysähtyy tietyn ajan jälkeen
 231:main.c        ****         if (tonniulkvas > ulkvasenMustaMax - 4000 && tonnisisvas > sisvasenMustaMax - 4000 && tonni
 232:main.c        ****             stopWatch = 0;
 233              		.loc 1 232 0
 234 00fa 0023     		movs	r3, #0
 235 00fc 0493     		str	r3, [sp, #16]
 236              	.LVL42:
 233:main.c        ****             startStopWatch = 1;
 237              		.loc 1 233 0
 238 00fe 0123     		movs	r3, #1
 239 0100 0693     		str	r3, [sp, #24]
 240              	.LVL43:
 241              	.L8:
 139:main.c        ****         //printf("%d %d %d %d \r\n", ref.l3, ref.l1, ref.r1, ref.r3);       //print out each period
 242              		.loc 1 139 0
 243 0102 0CA8     		add	r0, sp, #48
 244 0104 FFF7FEFF 		bl	reflectance_read
 245              	.LVL44:
 151:main.c        ****         int tonnisisvas = ref.l1;
 246              		.loc 1 151 0
 247 0108 BDF83060 		ldrh	r6, [sp, #48]
 248              	.LVL45:
 152:main.c        ****         int tonnisisoik = ref.r1;
 249              		.loc 1 152 0
 250 010c BDF83270 		ldrh	r7, [sp, #50]
 251              	.LVL46:
 153:main.c        ****         int tonniulkoik = ref.r3;
 252              		.loc 1 153 0
 253 0110 BDF83480 		ldrh	r8, [sp, #52]
 254              	.LVL47:
 154:main.c        ****         
 255              		.loc 1 154 0
 256 0114 BDF836A0 		ldrh	r10, [sp, #54]
 257              	.LVL48:
 168:main.c        ****         vasenNopeus = minNopeus + ((oikTermiNro - 1) * oikVakioMuuttuja / 10000);
 258              		.loc 1 168 0
 259 0118 CBEB0703 		rsb	r3, fp, r7
 260 011c 079A     		ldr	r2, [sp, #28]
 261 011e 02FB03F3 		mul	r3, r2, r3
 262 0122 6B4D     		ldr	r5, .L36+24
 263 0124 85FB0324 		smull	r2, r4, r5, r3
 264 0128 DB17     		asrs	r3, r3, #31
 265 012a C3EB2434 		rsb	r4, r3, r4, asr #12
 266              	.LVL49:
ARM GAS  C:\Users\Miikka\AppData\Local\Temp\ccVGNFhN.s 			page 10


 169:main.c        ****             
 267              		.loc 1 169 0
 268 012e 059B     		ldr	r3, [sp, #20]
 269 0130 C3EB0803 		rsb	r3, r3, r8
 270 0134 089A     		ldr	r2, [sp, #32]
 271 0136 02FB03F3 		mul	r3, r2, r3
 272 013a 85FB0325 		smull	r2, r5, r5, r3
 273 013e DB17     		asrs	r3, r3, #31
 274 0140 C3EB2535 		rsb	r5, r3, r5, asr #12
 275              	.LVL50:
 172:main.c        ****             vasenNopeus = maxNopeus;    
 276              		.loc 1 172 0
 277 0144 FF2D     		cmp	r5, #255
 278 0146 00DD     		ble	.L9
 173:main.c        ****         }
 279              		.loc 1 173 0
 280 0148 FF25     		movs	r5, #255
 281              	.LVL51:
 282              	.L9:
 175:main.c        ****             oikeaNopeus = maxNopeus;    
 283              		.loc 1 175 0
 284 014a FF2C     		cmp	r4, #255
 285 014c 00DD     		ble	.L10
 176:main.c        ****         }
 286              		.loc 1 176 0
 287 014e FF24     		movs	r4, #255
 288              	.LVL52:
 289              	.L10:
 180:main.c        ****             vasenNopeus = minNopeus;    
 290              		.loc 1 180 0
 291 0150 002D     		cmp	r5, #0
 292 0152 00DA     		bge	.L11
 181:main.c        ****         }
 293              		.loc 1 181 0
 294 0154 0025     		movs	r5, #0
 295              	.LVL53:
 296              	.L11:
 183:main.c        ****             oikeaNopeus = minNopeus;    
 297              		.loc 1 183 0
 298 0156 002C     		cmp	r4, #0
 299 0158 00DA     		bge	.L12
 184:main.c        ****         }
 300              		.loc 1 184 0
 301 015a 0024     		movs	r4, #0
 302              	.LVL54:
 303              	.L12:
 188:main.c        ****             kaantyi = 0;    
 304              		.loc 1 188 0
 305 015c A542     		cmp	r5, r4
 306 015e 02DB     		blt	.L31
 190:main.c        ****             kaantyi = 1;    
 307              		.loc 1 190 0
 308 0160 AC42     		cmp	r4, r5
 309 0162 03DB     		blt	.L32
 310 0164 04E0     		b	.L13
 311              	.L31:
 189:main.c        ****         } else if (oikeaNopeus < vasenNopeus) {
ARM GAS  C:\Users\Miikka\AppData\Local\Temp\ccVGNFhN.s 			page 11


 312              		.loc 1 189 0
 313 0166 0023     		movs	r3, #0
 314 0168 0393     		str	r3, [sp, #12]
 315              	.LVL55:
 316 016a 01E0     		b	.L13
 317              	.LVL56:
 318              	.L32:
 191:main.c        ****         }
 319              		.loc 1 191 0
 320 016c 0123     		movs	r3, #1
 321 016e 0393     		str	r3, [sp, #12]
 322              	.LVL57:
 323              	.L13:
 198:main.c        ****             motor_turn(minNopeus, maxNopeus, delay);
 324              		.loc 1 198 0
 325 0170 A9F56A53 		sub	r3, r9, #14976
 326 0174 183B     		subs	r3, r3, #24
 327 0176 B342     		cmp	r3, r6
 328 0178 07DA     		bge	.L14
 199:main.c        ****             kaantyi = 0;
 329              		.loc 1 199 0
 330 017a 0020     		movs	r0, #0
 331 017c FF21     		movs	r1, #255
 332 017e 0122     		movs	r2, #1
 333 0180 FFF7FEFF 		bl	motor_turn
 334              	.LVL58:
 200:main.c        ****         } else if (tonniulkoik > ulkoikeaMustaMax - 15000) {
 335              		.loc 1 200 0
 336 0184 0023     		movs	r3, #0
 337 0186 0393     		str	r3, [sp, #12]
 338 0188 32E0     		b	.L15
 339              	.LVL59:
 340              	.L14:
 201:main.c        ****             motor_turn(maxNopeus, minNopeus, delay);
 341              		.loc 1 201 0
 342 018a 099B     		ldr	r3, [sp, #36]
 343 018c A3F56A53 		sub	r3, r3, #14976
 344 0190 183B     		subs	r3, r3, #24
 345 0192 5345     		cmp	r3, r10
 346 0194 07DA     		bge	.L16
 202:main.c        ****             kaantyi = 1;
 347              		.loc 1 202 0
 348 0196 FF20     		movs	r0, #255
 349 0198 0021     		movs	r1, #0
 350 019a 0122     		movs	r2, #1
 351 019c FFF7FEFF 		bl	motor_turn
 352              	.LVL60:
 203:main.c        ****             
 353              		.loc 1 203 0
 354 01a0 0123     		movs	r3, #1
 355 01a2 0393     		str	r3, [sp, #12]
 356 01a4 24E0     		b	.L15
 357              	.LVL61:
 358              	.L16:
 206:main.c        ****             BatteryLed_Write(1);
 359              		.loc 1 206 0
 360 01a6 0BF5FA63 		add	r3, fp, #2000
ARM GAS  C:\Users\Miikka\AppData\Local\Temp\ccVGNFhN.s 			page 12


 361 01aa BB42     		cmp	r3, r7
 362 01ac 04DA     		bge	.L17
 206:main.c        ****             BatteryLed_Write(1);
 363              		.loc 1 206 0 is_stmt 0 discriminator 1
 364 01ae 059B     		ldr	r3, [sp, #20]
 365 01b0 03F5FA63 		add	r3, r3, #2000
 366 01b4 4345     		cmp	r3, r8
 367 01b6 13DB     		blt	.L18
 368              	.L17:
 207:main.c        ****             if (kaantyi == 0) {
 369              		.loc 1 207 0 is_stmt 1
 370 01b8 0120     		movs	r0, #1
 371 01ba FFF7FEFF 		bl	BatteryLed_Write
 372              	.LVL62:
 208:main.c        ****                 motor_turn(minNopeus, maxNopeus, delay); 
 373              		.loc 1 208 0
 374 01be 039B     		ldr	r3, [sp, #12]
 375 01c0 2BB9     		cbnz	r3, .L19
 209:main.c        ****             } else if (kaantyi == 1) {
 376              		.loc 1 209 0
 377 01c2 0020     		movs	r0, #0
 378 01c4 FF21     		movs	r1, #255
 379 01c6 0122     		movs	r2, #1
 380 01c8 FFF7FEFF 		bl	motor_turn
 381              	.LVL63:
 382 01cc 10E0     		b	.L15
 383              	.L19:
 210:main.c        ****                 motor_turn(maxNopeus, minNopeus, delay);
 384              		.loc 1 210 0
 385 01ce 039B     		ldr	r3, [sp, #12]
 386 01d0 012B     		cmp	r3, #1
 387 01d2 0DD1     		bne	.L15
 211:main.c        ****             }
 388              		.loc 1 211 0
 389 01d4 FF20     		movs	r0, #255
 390 01d6 0021     		movs	r1, #0
 391 01d8 0122     		movs	r2, #1
 392 01da FFF7FEFF 		bl	motor_turn
 393              	.LVL64:
 394 01de 07E0     		b	.L15
 395              	.L18:
 215:main.c        ****             motor_turn(vasenNopeus, oikeaNopeus, delay);
 396              		.loc 1 215 0
 397 01e0 0020     		movs	r0, #0
 398 01e2 FFF7FEFF 		bl	BatteryLed_Write
 399              	.LVL65:
 216:main.c        ****         }
 400              		.loc 1 216 0
 401 01e6 E8B2     		uxtb	r0, r5
 402 01e8 E1B2     		uxtb	r1, r4
 403 01ea 0122     		movs	r2, #1
 404 01ec FFF7FEFF 		bl	motor_turn
 405              	.LVL66:
 406              	.L15:
 221:main.c        ****             stopWatch++;    
 407              		.loc 1 221 0
 408 01f0 069B     		ldr	r3, [sp, #24]
ARM GAS  C:\Users\Miikka\AppData\Local\Temp\ccVGNFhN.s 			page 13


 409 01f2 13B1     		cbz	r3, .L20
 222:main.c        ****         }
 410              		.loc 1 222 0
 411 01f4 049B     		ldr	r3, [sp, #16]
 412 01f6 0133     		adds	r3, r3, #1
 413 01f8 0493     		str	r3, [sp, #16]
 414              	.LVL67:
 415              	.L20:
 225:main.c        ****             motor_stop();
 416              		.loc 1 225 0
 417 01fa 049B     		ldr	r3, [sp, #16]
 418 01fc 0B3B     		subs	r3, r3, #11
 419 01fe BC2B     		cmp	r3, #188
 420 0200 15D8     		bhi	.L21
 225:main.c        ****             motor_stop();
 421              		.loc 1 225 0 is_stmt 0 discriminator 1
 422 0202 A9F57A63 		sub	r3, r9, #4000
 423 0206 B342     		cmp	r3, r6
 424 0208 11DA     		bge	.L21
 225:main.c        ****             motor_stop();
 425              		.loc 1 225 0 discriminator 2
 426 020a 0A9B     		ldr	r3, [sp, #40]
 427 020c A3F57A63 		sub	r3, r3, #4000
 428 0210 BB42     		cmp	r3, r7
 429 0212 0CDA     		bge	.L21
 225:main.c        ****             motor_stop();
 430              		.loc 1 225 0 discriminator 3
 431 0214 0B9B     		ldr	r3, [sp, #44]
 432 0216 A3F57A63 		sub	r3, r3, #4000
 433 021a 4345     		cmp	r3, r8
 434 021c 07DA     		bge	.L21
 225:main.c        ****             motor_stop();
 435              		.loc 1 225 0 discriminator 4
 436 021e 099B     		ldr	r3, [sp, #36]
 437 0220 A3F57A63 		sub	r3, r3, #4000
 438 0224 5345     		cmp	r3, r10
 439 0226 02DA     		bge	.L21
 226:main.c        ****             break;
 440              		.loc 1 226 0 is_stmt 1
 441 0228 FFF7FEFF 		bl	motor_stop
 442              	.LVL68:
 227:main.c        ****         }
 443              		.loc 1 227 0
 444 022c 17E0     		b	.L22
 445              	.L21:
 231:main.c        ****             stopWatch = 0;
 446              		.loc 1 231 0
 447 022e A9F57A63 		sub	r3, r9, #4000
 448 0232 B342     		cmp	r3, r6
 449 0234 BFF665AF 		bge	.L8
 231:main.c        ****             stopWatch = 0;
 450              		.loc 1 231 0 is_stmt 0 discriminator 1
 451 0238 0A9B     		ldr	r3, [sp, #40]
 452 023a A3F57A63 		sub	r3, r3, #4000
 453 023e BB42     		cmp	r3, r7
 454 0240 BFF65FAF 		bge	.L8
 231:main.c        ****             stopWatch = 0;
ARM GAS  C:\Users\Miikka\AppData\Local\Temp\ccVGNFhN.s 			page 14


 455              		.loc 1 231 0 discriminator 2
 456 0244 0B9B     		ldr	r3, [sp, #44]
 457 0246 A3F57A63 		sub	r3, r3, #4000
 458 024a 4345     		cmp	r3, r8
 459 024c BFF659AF 		bge	.L8
 231:main.c        ****             stopWatch = 0;
 460              		.loc 1 231 0 discriminator 3
 461 0250 099B     		ldr	r3, [sp, #36]
 462 0252 A3F57A63 		sub	r3, r3, #4000
 463 0256 5345     		cmp	r3, r10
 464 0258 FFF64FAF 		blt	.L33
 465 025c 51E7     		b	.L8
 466              	.LVL69:
 467              	.L22:
 468              	.LBE2:
 234:main.c        ****         }
 235:main.c        ****         
 236:main.c        ****         
 237:main.c        ****         //----------------------------------//
 238:main.c        ****         //YKKÖSILLÄ JA NOLLILLA AJAMISTA//
 239:main.c        ****         /*    
 240:main.c        ****         //sisimmät mustalla => suoraan
 241:main.c        ****         if (sisvas == 0 && sisoik == 0) {
 242:main.c        ****             motor_turn(250,255,delay);
 243:main.c        ****         }
 244:main.c        ****         // oikea mustalla => käännös oikealle
 245:main.c        ****         if (ulkvas == 1 && sisvas == 1 && sisoik == 0 && ulkoik == 0) {
 246:main.c        ****             motor_turn(255,80,delay);
 247:main.c        ****         }
 248:main.c        ****         // vasen mustalla => käännös vasemmalle
 249:main.c        ****         if (ulkvas == 0 && sisvas == 0 && sisoik == 1 && ulkoik == 1) {
 250:main.c        ****             motor_turn(80,255,delay);
 251:main.c        ****         }
 252:main.c        ****         // molemmat oikeat mustalla => tiukka käännös oikeaan
 253:main.c        ****         if (ulkvas == 1 && sisvas == 1 && sisoik == 1 && ulkoik == 0) {
 254:main.c        ****             motor_turn(255,10,delay);
 255:main.c        ****         }
 256:main.c        ****         // molemmat vasemmat mustalla => tiukka käännös vasempaan
 257:main.c        ****         if (ulkvas == 0 && sisvas == 1 && sisoik == 1 && ulkoik == 1) {
 258:main.c        ****             motor_turn(10,255,delay);
 259:main.c        ****         }
 260:main.c        ****         // vain vasen sisin mustalla => lievä käännös vasempaan
 261:main.c        ****         if (ulkvas == 1 && sisvas == 0 && sisoik == 1 && ulkoik == 1) {
 262:main.c        ****             motor_turn(150,255,delay);
 263:main.c        ****         }
 264:main.c        ****         // vain oikea sisin mustalla => lievä käännös oikeaan
 265:main.c        ****         if (ulkvas == 1 && sisvas == 1 && sisoik == 0 && ulkoik == 1) {
 266:main.c        ****             motor_turn(255,150,delay);
 267:main.c        ****         }
 268:main.c        ****        
 269:main.c        ****         //Laskuri pysähtymiseen
 270:main.c        ****         if (startStopWatch == 1) {
 271:main.c        ****             stopWatch++;    
 272:main.c        ****         }
 273:main.c        ****         
 274:main.c        ****         if (stopWatch > 10 && stopWatch < 200 && ulkvas == 0 && sisvas == 0 && sisoik == 0 && ulkoi
 275:main.c        ****             motor_stop();
ARM GAS  C:\Users\Miikka\AppData\Local\Temp\ccVGNFhN.s 			page 15


 276:main.c        ****             break;
 277:main.c        ****         }
 278:main.c        ****         
 279:main.c        ****         // sensorit kaikki mustalla => pysähtyy tietyn ajan jälkeen
 280:main.c        ****         if (ulkvas == 0 && sisvas == 0 && sisoik == 0 && ulkoik == 0) {
 281:main.c        ****             stopWatch = 0;
 282:main.c        ****             startStopWatch = 1;
 283:main.c        ****         }
 284:main.c        ****         */
 285:main.c        ****         //CyDelay(delay);
 286:main.c        ****     }
 287:main.c        **** 
 288:main.c        **** //****
 289:main.c        ****     /*
 290:main.c        ****     while(button == 1) {
 291:main.c        ****         button = SW1_Read();
 292:main.c        ****        }
 293:main.c        ****     
 294:main.c        ****     motor_start();              // motor start
 295:main.c        **** 
 296:main.c        ****     //motor_forward(100,4800);     // moving forward
 297:main.c        ****     motor_turn(200,205,1000);
 298:main.c        ****     motor_turn(50,200,600);
 299:main.c        ****     motor_turn(200,205,1000);
 300:main.c        ****     motor_turn(50,200,600);
 301:main.c        ****     motor_turn(200,205,1000);
 302:main.c        ****     motor_turn(50,200,600);
 303:main.c        ****     motor_turn(200,205,1000);
 304:main.c        ****     motor_turn(50,200,600);
 305:main.c        ****     
 306:main.c        ****     //motor_turn(200,205,x) suoraan
 307:main.c        ****     //motor_turn(200,50,600); 90-asteen käännös oikealle
 308:main.c        ****     //motor_turn(50,200,600); 90-asteen käännös vasemmalle
 309:main.c        **** 
 310:main.c        ****     //motor_backward(100,2000);    // movinb backward
 311:main.c        ****        
 312:main.c        ****     motor_stop();               // motor stop*/
 313:main.c        ****     
 314:main.c        ****     for(;;)
 315:main.c        ****     {
 316:main.c        ****         
 317:main.c        ****         ADC_Battery_StartConvert();
 469              		.loc 1 317 0 is_stmt 1
 470 025e FFF7FEFF 		bl	ADC_Battery_StartConvert
 471              	.LVL70:
 318:main.c        ****         if(ADC_Battery_IsEndConversion(ADC_Battery_WAIT_FOR_RESULT)) {   // wait for get ADC conver
 472              		.loc 1 318 0
 473 0262 0020     		movs	r0, #0
 474 0264 FFF7FEFF 		bl	ADC_Battery_IsEndConversion
 475              	.LVL71:
 476 0268 00B3     		cbz	r0, .L24
 319:main.c        ****             adcresult = ADC_Battery_GetResult16();
 477              		.loc 1 319 0
 478 026a FFF7FEFF 		bl	ADC_Battery_GetResult16
 479              	.LVL72:
 480 026e 0446     		mov	r4, r0
 481              	.LVL73:
ARM GAS  C:\Users\Miikka\AppData\Local\Temp\ccVGNFhN.s 			page 16


 320:main.c        ****             volts = ADC_Battery_CountsTo_Volts(adcresult) * 1.5;                  // convert value 
 482              		.loc 1 320 0
 483 0270 FFF7FEFF 		bl	ADC_Battery_CountsTo_Volts
 484              	.LVL74:
 485 0274 4FF07F51 		mov	r1, #1069547520
 486 0278 FFF7FEFF 		bl	__aeabi_fmul
 487              	.LVL75:
 488 027c 0546     		mov	r5, r0
 489              	.LVL76:
 321:main.c        ****             
 322:main.c        ****            
 323:main.c        ****             if (volts < 4) {
 490              		.loc 1 323 0
 491 027e 4FF08141 		mov	r1, #1082130432
 492 0282 FFF7FEFF 		bl	__aeabi_fcmplt
 493              	.LVL77:
 494 0286 40B1     		cbz	r0, .L25
 324:main.c        ****                 BatteryLed_Write(1);
 495              		.loc 1 324 0
 496 0288 0120     		movs	r0, #1
 497 028a FFF7FEFF 		bl	BatteryLed_Write
 498              	.LVL78:
 325:main.c        ****                 CyDelay(250);
 499              		.loc 1 325 0
 500 028e FA20     		movs	r0, #250
 501 0290 FFF7FEFF 		bl	CyDelay
 502              	.LVL79:
 326:main.c        ****                  BatteryLed_Write(0);
 503              		.loc 1 326 0
 504 0294 0020     		movs	r0, #0
 505 0296 FFF7FEFF 		bl	BatteryLed_Write
 506              	.LVL80:
 507              	.L25:
 327:main.c        ****             }
 328:main.c        ****             // If you want to print value
 329:main.c        ****             printf("%d %f\r\n",adcresult, volts);
 508              		.loc 1 329 0
 509 029a 2846     		mov	r0, r5
 510 029c FFF7FEFF 		bl	__aeabi_f2d
 511              	.LVL81:
 512 02a0 0246     		mov	r2, r0
 513 02a2 0B46     		mov	r3, r1
 514 02a4 0B48     		ldr	r0, .L36+28
 515 02a6 2146     		mov	r1, r4
 516 02a8 FFF7FEFF 		bl	printf
 517              	.LVL82:
 518              	.L24:
 330:main.c        ****         }
 331:main.c        ****         CyDelay(500);
 519              		.loc 1 331 0
 520 02ac 4FF4FA70 		mov	r0, #500
 521 02b0 FFF7FEFF 		bl	CyDelay
 522              	.LVL83:
 332:main.c        ****         
 333:main.c        ****     }
 523              		.loc 1 333 0
 524 02b4 D3E7     		b	.L22
ARM GAS  C:\Users\Miikka\AppData\Local\Temp\ccVGNFhN.s 			page 17


 525              	.L37:
 526 02b6 00BF     		.align	2
 527              	.L36:
 528 02b8 00000000 		.word	.LC0
 529 02bc 00000000 		.word	sensor_isr_handler
 530 02c0 08000000 		.word	.LC1
 531 02c4 18000000 		.word	.LC2
 532 02c8 28000000 		.word	.LC3
 533 02cc F0E82600 		.word	2550000
 534 02d0 AD8BDB68 		.word	1759218605
 535 02d4 38000000 		.word	.LC4
 536              		.cfi_endproc
 537              	.LFE63:
 538              		.size	main, .-main
 539              		.section	.text._write,"ax",%progbits
 540              		.align	2
 541              		.global	_write
 542              		.thumb
 543              		.thumb_func
 544              		.type	_write, %function
 545              	_write:
 546              	.LFB64:
 334:main.c        ****     
 335:main.c        ****     
 336:main.c        ****     
 337:main.c        ****  }   
 338:main.c        **** 
 339:main.c        **** 
 340:main.c        **** 
 341:main.c        **** /*//ultra sonic sensor//
 342:main.c        **** int main()
 343:main.c        **** {
 344:main.c        ****     CyGlobalIntEnable; 
 345:main.c        ****     UART_1_Start();
 346:main.c        ****     Ultra_Start();                          // Ultra Sonic Start function
 347:main.c        ****     while(1) {
 348:main.c        ****         //If you want to print out the value  
 349:main.c        ****         printf("distance = %5.0f\r\n", Ultra_GetDistance());
 350:main.c        ****         CyDelay(1000);
 351:main.c        ****     }
 352:main.c        **** }   
 353:main.c        **** //*/
 354:main.c        **** 
 355:main.c        **** 
 356:main.c        **** /*//nunchuk//
 357:main.c        **** int main()
 358:main.c        **** {
 359:main.c        ****     CyGlobalIntEnable; 
 360:main.c        ****     UART_1_Start();
 361:main.c        ****   
 362:main.c        ****     nunchuk_start();
 363:main.c        ****     nunchuk_init();
 364:main.c        ****     
 365:main.c        ****     for(;;)
 366:main.c        ****     {    
 367:main.c        ****         nunchuk_read();
 368:main.c        ****     }
ARM GAS  C:\Users\Miikka\AppData\Local\Temp\ccVGNFhN.s 			page 18


 369:main.c        **** }   
 370:main.c        **** //*/
 371:main.c        **** 
 372:main.c        **** 
 373:main.c        **** /*//IR receiver//
 374:main.c        **** int main()
 375:main.c        **** {
 376:main.c        ****     CyGlobalIntEnable; 
 377:main.c        ****     UART_1_Start();
 378:main.c        ****     
 379:main.c        ****     unsigned int IR_val; 
 380:main.c        ****     
 381:main.c        ****     for(;;)
 382:main.c        ****     {
 383:main.c        ****        IR_val = get_IR();
 384:main.c        ****        printf("%x\r\n\n",IR_val);
 385:main.c        ****     }    
 386:main.c        ****  }   
 387:main.c        **** //*/
 388:main.c        **** 
 389:main.c        **** 
 390:main.c        **** /*//Ambient light sensor//
 391:main.c        **** int main()
 392:main.c        **** {
 393:main.c        ****     CyGlobalIntEnable; 
 394:main.c        ****     UART_1_Start();
 395:main.c        ****     
 396:main.c        ****     I2C_Start();
 397:main.c        ****     
 398:main.c        ****     I2C_write(0x29,0x80,0x00);          // set to power down
 399:main.c        ****     I2C_write(0x29,0x80,0x03);          // set to power on
 400:main.c        ****     
 401:main.c        ****     for(;;)
 402:main.c        ****     {    
 403:main.c        ****         uint8 Data0Low,Data0High,Data1Low,Data1High;
 404:main.c        ****         Data0Low = I2C_read(0x29,CH0_L);
 405:main.c        ****         Data0High = I2C_read(0x29,CH0_H);
 406:main.c        ****         Data1Low = I2C_read(0x29,CH1_L);
 407:main.c        ****         Data1High = I2C_read(0x29,CH1_H);
 408:main.c        ****         
 409:main.c        ****         uint8 CH0, CH1;
 410:main.c        ****         CH0 = convert_raw(Data0Low,Data0High);      // combine Data0
 411:main.c        ****         CH1 = convert_raw(Data1Low,Data1High);      // combine Data1
 412:main.c        **** 
 413:main.c        ****         double Ch0 = CH0;
 414:main.c        ****         double Ch1 = CH1;
 415:main.c        ****         
 416:main.c        ****         double data = 0;
 417:main.c        ****         data = getLux(Ch0,Ch1);
 418:main.c        ****         
 419:main.c        ****         // If you want to print out data
 420:main.c        ****         //printf("%lf\r\n",data);    
 421:main.c        ****     }    
 422:main.c        ****  }   
 423:main.c        **** //*/
 424:main.c        **** 
 425:main.c        **** 
ARM GAS  C:\Users\Miikka\AppData\Local\Temp\ccVGNFhN.s 			page 19


 426:main.c        **** /*//accelerometer//
 427:main.c        **** int main()
 428:main.c        **** {
 429:main.c        ****     CyGlobalIntEnable; 
 430:main.c        ****     UART_1_Start();
 431:main.c        ****   
 432:main.c        ****     I2C_Start();
 433:main.c        ****   
 434:main.c        ****     uint8 X_L_A, X_H_A, Y_L_A, Y_H_A, Z_L_A, Z_H_A;
 435:main.c        ****     int16 X_AXIS_A, Y_AXIS_A, Z_AXIS_A;
 436:main.c        ****     
 437:main.c        ****     I2C_write(ACCEL_MAG_ADDR, ACCEL_CTRL1_REG, 0x37);           // set accelerometer & magnetometer
 438:main.c        ****     I2C_write(ACCEL_MAG_ADDR, ACCEL_CTRL7_REG, 0x22);
 439:main.c        ****     
 440:main.c        ****     
 441:main.c        ****     for(;;)
 442:main.c        ****     {
 443:main.c        ****         //print out accelerometer output
 444:main.c        ****         X_L_A = I2C_read(ACCEL_MAG_ADDR, OUT_X_L_A);
 445:main.c        ****         X_H_A = I2C_read(ACCEL_MAG_ADDR, OUT_X_H_A);
 446:main.c        ****         X_AXIS_A = convert_raw(X_L_A, X_H_A);
 447:main.c        ****         
 448:main.c        ****         Y_L_A = I2C_read(ACCEL_MAG_ADDR, OUT_Y_L_A);
 449:main.c        ****         Y_H_A = I2C_read(ACCEL_MAG_ADDR, OUT_Y_H_A);
 450:main.c        ****         Y_AXIS_A = convert_raw(Y_L_A, Y_H_A);
 451:main.c        ****         
 452:main.c        ****         Z_L_A = I2C_read(ACCEL_MAG_ADDR, OUT_Z_L_A);
 453:main.c        ****         Z_H_A = I2C_read(ACCEL_MAG_ADDR, OUT_Z_H_A);
 454:main.c        ****         Z_AXIS_A = convert_raw(Z_L_A, Z_H_A);
 455:main.c        ****         
 456:main.c        ****         printf("ACCEL: %d %d %d %d %d %d \r\n", X_L_A, X_H_A, Y_L_A, Y_H_A, Z_L_A, Z_H_A);
 457:main.c        ****         value_convert_accel(X_AXIS_A, Y_AXIS_A, Z_AXIS_A);
 458:main.c        ****         printf("\n");
 459:main.c        ****         
 460:main.c        ****         CyDelay(50);
 461:main.c        ****     }
 462:main.c        **** }   
 463:main.c        **** //*/
 464:main.c        **** 
 465:main.c        **** 
 466:main.c        **** /*//reflectance//
 467:main.c        **** int main()
 468:main.c        **** {
 469:main.c        ****     struct sensors_ ref;
 470:main.c        ****     struct sensors_ dig;
 471:main.c        ****     CyGlobalIntEnable; 
 472:main.c        ****     UART_1_Start();
 473:main.c        ****   
 474:main.c        ****     sensor_isr_StartEx(sensor_isr_handler);
 475:main.c        ****     
 476:main.c        ****     reflectance_start();
 477:main.c        **** 
 478:main.c        ****     IR_led_Write(1);
 479:main.c        ****     for(;;)
 480:main.c        ****     {
 481:main.c        ****         reflectance_read(&ref);
 482:main.c        ****         printf("%d %d %d %d \r\n", ref.l3, ref.l1, ref.r1, ref.r3);       //print out each period o
ARM GAS  C:\Users\Miikka\AppData\Local\Temp\ccVGNFhN.s 			page 20


 483:main.c        ****         reflectance_digital(&dig);      //print out 0 or 1 according to results of reflectance peri
 484:main.c        ****         printf("%d %d %d %d \r\n", dig.l3, dig.l1, dig.r1, dig.r3);        //print out 0 or 1 accor
 485:main.c        ****         
 486:main.c        ****         CyDelay(500);
 487:main.c        ****     }
 488:main.c        **** }   
 489:main.c        **** //*/
 490:main.c        **** 
 491:main.c        ****   //motor//
 492:main.c        **** /*int main()
 493:main.c        **** {
 494:main.c        ****     CyGlobalIntEnable; 
 495:main.c        ****     UART_1_Start();
 496:main.c        **** 
 497:main.c        ****     motor_start();              // motor start
 498:main.c        **** 
 499:main.c        ****     motor_forward(100,4800);     // moving forward
 500:main.c        ****     motor_turn(200,50,2000);     // turn
 501:main.c        ****     //motor_turn(50,200,2000);     // turn
 502:main.c        ****     //motor_backward(100,2000);    // movinb backward
 503:main.c        ****        
 504:main.c        ****     motor_stop();               // motor stop
 505:main.c        ****     
 506:main.c        ****     for(;;)
 507:main.c        ****     {
 508:main.c        **** 
 509:main.c        ****     }
 510:main.c        **** }*/
 511:main.c        **** //*/
 512:main.c        ****     
 513:main.c        **** 
 514:main.c        **** /*//gyroscope//
 515:main.c        **** int main()
 516:main.c        **** {
 517:main.c        ****     CyGlobalIntEnable; 
 518:main.c        ****     UART_1_Start();
 519:main.c        ****   
 520:main.c        ****     I2C_Start();
 521:main.c        ****   
 522:main.c        ****     uint8 X_L_G, X_H_G, Y_L_G, Y_H_G, Z_L_G, Z_H_G;
 523:main.c        ****     int16 X_AXIS_G, Y_AXIS_G, Z_AXIS_G;
 524:main.c        ****     
 525:main.c        ****     I2C_write(GYRO_ADDR, GYRO_CTRL1_REG, 0x0F);             // set gyroscope into active mode
 526:main.c        ****     I2C_write(GYRO_ADDR, GYRO_CTRL4_REG, 0x30);             // set full scale selection to 2000dps 
 527:main.c        ****     
 528:main.c        ****     for(;;)
 529:main.c        ****     {
 530:main.c        ****         //print out gyroscope output
 531:main.c        ****         X_L_G = I2C_read(GYRO_ADDR, OUT_X_AXIS_L);
 532:main.c        ****         X_H_G = I2C_read(GYRO_ADDR, OUT_X_AXIS_H);
 533:main.c        ****         X_AXIS_G = convert_raw(X_H_G, X_L_G);
 534:main.c        ****         
 535:main.c        ****         
 536:main.c        ****         Y_L_G = I2C_read(GYRO_ADDR, OUT_Y_AXIS_L);
 537:main.c        ****         Y_H_G = I2C_read(GYRO_ADDR, OUT_Y_AXIS_H);
 538:main.c        ****         Y_AXIS_G = convert_raw(Y_H_G, Y_L_G);
 539:main.c        ****         
ARM GAS  C:\Users\Miikka\AppData\Local\Temp\ccVGNFhN.s 			page 21


 540:main.c        ****         
 541:main.c        ****         Z_L_G = I2C_read(GYRO_ADDR, OUT_Z_AXIS_L);
 542:main.c        ****         Z_H_G = I2C_read(GYRO_ADDR, OUT_Z_AXIS_H);
 543:main.c        ****         Z_AXIS_G = convert_raw(Z_H_G, Z_L_G);
 544:main.c        ****      
 545:main.c        ****         // If you want to print value
 546:main.c        ****         printf("%d %d %d \r\n", X_AXIS_G, Y_AXIS_G, Z_AXIS_G);
 547:main.c        ****         CyDelay(50);
 548:main.c        ****     }
 549:main.c        **** }   
 550:main.c        **** //*/
 551:main.c        **** 
 552:main.c        **** 
 553:main.c        **** /*//magnetometer//
 554:main.c        **** int main()
 555:main.c        **** {
 556:main.c        ****     CyGlobalIntEnable; 
 557:main.c        ****     UART_1_Start();
 558:main.c        ****   
 559:main.c        ****     I2C_Start();
 560:main.c        ****    
 561:main.c        ****     uint8 X_L_M, X_H_M, Y_L_M, Y_H_M, Z_L_M, Z_H_M;
 562:main.c        ****     int16 X_AXIS, Y_AXIS, Z_AXIS;
 563:main.c        ****     
 564:main.c        ****     I2C_write(GYRO_ADDR, GYRO_CTRL1_REG, 0x0F);             // set gyroscope into active mode
 565:main.c        ****     I2C_write(GYRO_ADDR, GYRO_CTRL4_REG, 0x30);             // set full scale selection to 2000dps
 566:main.c        ****     I2C_write(ACCEL_MAG_ADDR, ACCEL_CTRL1_REG, 0x37);           // set accelerometer & magnetometer
 567:main.c        ****     I2C_write(ACCEL_MAG_ADDR, ACCEL_CTRL7_REG, 0x22);
 568:main.c        ****     
 569:main.c        ****     
 570:main.c        ****     for(;;)
 571:main.c        ****     {
 572:main.c        ****         X_L_M = I2C_read(ACCEL_MAG_ADDR, OUT_X_L_M);
 573:main.c        ****         X_H_M = I2C_read(ACCEL_MAG_ADDR, OUT_X_H_M);
 574:main.c        ****         X_AXIS = convert_raw(X_L_M, X_H_M);
 575:main.c        ****         
 576:main.c        ****         Y_L_M = I2C_read(ACCEL_MAG_ADDR, OUT_Y_L_M);
 577:main.c        ****         Y_H_M = I2C_read(ACCEL_MAG_ADDR, OUT_Y_H_M);
 578:main.c        ****         Y_AXIS = convert_raw(Y_L_M, Y_H_M);
 579:main.c        ****         
 580:main.c        ****         Z_L_M = I2C_read(ACCEL_MAG_ADDR, OUT_Z_L_M);
 581:main.c        ****         Z_H_M = I2C_read(ACCEL_MAG_ADDR, OUT_Z_H_M);
 582:main.c        ****         Z_AXIS = convert_raw(Z_L_M, Z_H_M);
 583:main.c        ****         
 584:main.c        ****         heading(X_AXIS, Y_AXIS);
 585:main.c        ****         printf("MAGNET: %d %d %d %d %d %d \r\n", X_L_M, X_H_M, Y_L_M, Y_H_M, Z_L_M, Z_H_M);
 586:main.c        ****         printf("%d %d %d \r\n", X_AXIS,Y_AXIS, Z_AXIS);
 587:main.c        ****         CyDelay(50);      
 588:main.c        ****     }
 589:main.c        **** }   
 590:main.c        **** //*/
 591:main.c        **** 
 592:main.c        **** 
 593:main.c        **** #if 0
 594:main.c        **** int rread(void)
 595:main.c        **** {
 596:main.c        ****     SC0_SetDriveMode(PIN_DM_STRONG);
ARM GAS  C:\Users\Miikka\AppData\Local\Temp\ccVGNFhN.s 			page 22


 597:main.c        ****     SC0_Write(1);
 598:main.c        ****     CyDelayUs(10);
 599:main.c        ****     SC0_SetDriveMode(PIN_DM_DIG_HIZ);
 600:main.c        ****     Timer_1_Start();
 601:main.c        ****     uint16_t start = Timer_1_ReadCounter();
 602:main.c        ****     uint16_t end = 0;
 603:main.c        ****     while(!(Timer_1_ReadStatusRegister() & Timer_1_STATUS_TC)) {
 604:main.c        ****         if(SC0_Read() == 0 && end == 0) {
 605:main.c        ****             end = Timer_1_ReadCounter();
 606:main.c        ****         }
 607:main.c        ****     }
 608:main.c        ****     Timer_1_Stop();
 609:main.c        ****     
 610:main.c        ****     return (start - end);
 611:main.c        **** }
 612:main.c        **** #endif
 613:main.c        **** 
 614:main.c        **** /* Don't remove the functions below */
 615:main.c        **** int _write(int file, char *ptr, int len)
 616:main.c        **** {
 547              		.loc 1 616 0
 548              		.cfi_startproc
 549              		@ args = 0, pretend = 0, frame = 0
 550              		@ frame_needed = 0, uses_anonymous_args = 0
 551              	.LVL84:
 552 0000 F8B5     		push	{r3, r4, r5, r6, r7, lr}
 553              		.cfi_def_cfa_offset 24
 554              		.cfi_offset 3, -24
 555              		.cfi_offset 4, -20
 556              		.cfi_offset 5, -16
 557              		.cfi_offset 6, -12
 558              		.cfi_offset 7, -8
 559              		.cfi_offset 14, -4
 560 0002 0C46     		mov	r4, r1
 561 0004 1746     		mov	r7, r2
 562              	.LVL85:
 617:main.c        ****     (void)file; /* Parameter is not used, suppress unused argument warning */
 618:main.c        **** 	int n;
 619:main.c        **** 	for(n = 0; n < len; n++) {
 563              		.loc 1 619 0
 564 0006 0025     		movs	r5, #0
 565 0008 0BE0     		b	.L39
 566              	.LVL86:
 567              	.L41:
 620:main.c        ****         if(*ptr == '\n') UART_1_PutChar('\r');
 568              		.loc 1 620 0
 569 000a 2378     		ldrb	r3, [r4]	@ zero_extendqisi2
 570 000c 0A2B     		cmp	r3, #10
 571 000e 02D1     		bne	.L40
 572              		.loc 1 620 0 is_stmt 0 discriminator 1
 573 0010 0D20     		movs	r0, #13
 574 0012 FFF7FEFF 		bl	UART_1_PutChar
 575              	.LVL87:
 576              	.L40:
 621:main.c        **** 		UART_1_PutChar(*ptr++);
 577              		.loc 1 621 0 is_stmt 1 discriminator 2
 578 0016 661C     		adds	r6, r4, #1
ARM GAS  C:\Users\Miikka\AppData\Local\Temp\ccVGNFhN.s 			page 23


 579              	.LVL88:
 580 0018 2078     		ldrb	r0, [r4]	@ zero_extendqisi2
 581 001a FFF7FEFF 		bl	UART_1_PutChar
 582              	.LVL89:
 619:main.c        ****         if(*ptr == '\n') UART_1_PutChar('\r');
 583              		.loc 1 619 0 discriminator 2
 584 001e 0135     		adds	r5, r5, #1
 585              	.LVL90:
 586              		.loc 1 621 0 discriminator 2
 587 0020 3446     		mov	r4, r6
 588              	.LVL91:
 589              	.L39:
 619:main.c        ****         if(*ptr == '\n') UART_1_PutChar('\r');
 590              		.loc 1 619 0 discriminator 1
 591 0022 BD42     		cmp	r5, r7
 592 0024 F1DB     		blt	.L41
 622:main.c        **** 	}
 623:main.c        **** 	return len;
 624:main.c        **** }
 593              		.loc 1 624 0
 594 0026 3846     		mov	r0, r7
 595 0028 F8BD     		pop	{r3, r4, r5, r6, r7, pc}
 596              		.cfi_endproc
 597              	.LFE64:
 598              		.size	_write, .-_write
 599 002a 00BF     		.section	.text._read,"ax",%progbits
 600              		.align	2
 601              		.global	_read
 602              		.thumb
 603              		.thumb_func
 604              		.type	_read, %function
 605              	_read:
 606              	.LFB65:
 625:main.c        **** 
 626:main.c        **** int _read (int file, char *ptr, int count)
 627:main.c        **** {
 607              		.loc 1 627 0
 608              		.cfi_startproc
 609              		@ args = 0, pretend = 0, frame = 0
 610              		@ frame_needed = 0, uses_anonymous_args = 0
 611              	.LVL92:
 612 0000 F8B5     		push	{r3, r4, r5, r6, r7, lr}
 613              		.cfi_def_cfa_offset 24
 614              		.cfi_offset 3, -24
 615              		.cfi_offset 4, -20
 616              		.cfi_offset 5, -16
 617              		.cfi_offset 6, -12
 618              		.cfi_offset 7, -8
 619              		.cfi_offset 14, -4
 620 0002 0F46     		mov	r7, r1
 621 0004 1446     		mov	r4, r2
 622              	.LVL93:
 628:main.c        ****     int chs = 0;
 623              		.loc 1 628 0
 624 0006 0026     		movs	r6, #0
 629:main.c        ****     char ch;
 630:main.c        ****  
ARM GAS  C:\Users\Miikka\AppData\Local\Temp\ccVGNFhN.s 			page 24


 631:main.c        ****     (void)file; /* Parameter is not used, suppress unused argument warning */
 632:main.c        ****     while(count > 0) {
 625              		.loc 1 632 0
 626 0008 12E0     		b	.L45
 627              	.LVL94:
 628              	.L48:
 633:main.c        ****         ch = UART_1_GetChar();
 629              		.loc 1 633 0
 630 000a FFF7FEFF 		bl	UART_1_GetChar
 631              	.LVL95:
 634:main.c        ****         if(ch != 0) {
 632              		.loc 1 634 0
 633 000e 0546     		mov	r5, r0
 634 0010 70B1     		cbz	r0, .L45
 635:main.c        ****             UART_1_PutChar(ch);
 635              		.loc 1 635 0
 636 0012 FFF7FEFF 		bl	UART_1_PutChar
 637              	.LVL96:
 636:main.c        ****             chs++;
 638              		.loc 1 636 0
 639 0016 0136     		adds	r6, r6, #1
 640              	.LVL97:
 637:main.c        ****             if(ch == '\r') {
 641              		.loc 1 637 0
 642 0018 0D2D     		cmp	r5, #13
 643 001a 03D1     		bne	.L46
 644              	.LVL98:
 638:main.c        ****                 ch = '\n';
 639:main.c        ****                 UART_1_PutChar(ch);
 645              		.loc 1 639 0
 646 001c 0A20     		movs	r0, #10
 647 001e FFF7FEFF 		bl	UART_1_PutChar
 648              	.LVL99:
 638:main.c        ****                 ch = '\n';
 649              		.loc 1 638 0
 650 0022 0A25     		movs	r5, #10
 651              	.LVL100:
 652              	.L46:
 640:main.c        ****             }
 641:main.c        ****             *ptr++ = ch;
 653              		.loc 1 641 0
 654 0024 7B1C     		adds	r3, r7, #1
 655              	.LVL101:
 656 0026 3D70     		strb	r5, [r7]
 642:main.c        ****             count--;
 657              		.loc 1 642 0
 658 0028 013C     		subs	r4, r4, #1
 659              	.LVL102:
 643:main.c        ****             if(ch == '\n') break;
 660              		.loc 1 643 0
 661 002a 0A2D     		cmp	r5, #10
 662 002c 02D0     		beq	.L47
 641:main.c        ****             count--;
 663              		.loc 1 641 0
 664 002e 1F46     		mov	r7, r3
 665              	.LVL103:
 666              	.L45:
ARM GAS  C:\Users\Miikka\AppData\Local\Temp\ccVGNFhN.s 			page 25


 632:main.c        ****         ch = UART_1_GetChar();
 667              		.loc 1 632 0
 668 0030 002C     		cmp	r4, #0
 669 0032 EADC     		bgt	.L48
 670              	.LVL104:
 671              	.L47:
 644:main.c        ****         }
 645:main.c        ****     }
 646:main.c        ****     return chs;
 647:main.c        **** }
 672              		.loc 1 647 0
 673 0034 3046     		mov	r0, r6
 674 0036 F8BD     		pop	{r3, r4, r5, r6, r7, pc}
 675              		.cfi_endproc
 676              	.LFE65:
 677              		.size	_read, .-_read
 678              		.section	.rodata.str1.4,"aMS",%progbits,1
 679              		.align	2
 680              	.LC0:
 681 0000 0A426F6F 		.ascii	"\012Boot\000"
 681      7400
 682 0006 0000     		.space	2
 683              	.LC1:
 684 0008 56616C6B 		.ascii	"Valkoisen arvot\000"
 684      6F697365 
 684      6E206172 
 684      766F7400 
 685              	.LC2:
 686 0018 25642025 		.ascii	"%d %d %d %d\012\000"
 686      64202564 
 686      2025640A 
 686      00
 687 0025 000000   		.space	3
 688              	.LC3:
 689 0028 4D757374 		.ascii	"Mustan arvot\000"
 689      616E2061 
 689      72766F74 
 689      00
 690 0035 000000   		.space	3
 691              	.LC4:
 692 0038 25642025 		.ascii	"%d %f\015\012\000"
 692      660D0A00 
 693              		.text
 694              	.Letext0:
 695              		.file 2 "c:\\program files (x86)\\cypress\\psoc creator\\4.0\\psoc creator\\import\\gnu\\arm\\4.9.
 696              		.file 3 "c:\\program files (x86)\\cypress\\psoc creator\\4.0\\psoc creator\\import\\gnu\\arm\\4.9.
 697              		.file 4 "Generated_Source\\PSoC5/cytypes.h"
 698              		.file 5 ".\\ZumoLibrary/Reflectance.h"
 699              		.file 6 ".\\ZumoLibrary/Motor.h"
 700              		.file 7 "Generated_Source\\PSoC5/BatteryLed.h"
 701              		.file 8 "Generated_Source\\PSoC5/UART_1.h"
 702              		.file 9 "Generated_Source\\PSoC5/ADC_Battery.h"
 703              		.file 10 "Generated_Source\\PSoC5/sensor_isr.h"
 704              		.file 11 "Generated_Source\\PSoC5/IR_led.h"
 705              		.file 12 "Generated_Source\\PSoC5/CyLib.h"
 706              		.file 13 "c:\\program files (x86)\\cypress\\psoc creator\\4.0\\psoc creator\\import\\gnu\\arm\\4.9
 707              		.file 14 "Generated_Source\\PSoC5/SW1.h"
ARM GAS  C:\Users\Miikka\AppData\Local\Temp\ccVGNFhN.s 			page 26


 708              		.file 15 "Generated_Source\\PSoC5/core_cm3.h"
 709              		.file 16 "<built-in>"